; Function Attrs: mustprogress uwtable
define noundef zeroext i1 @_ZN4base11GetFileInfoERKNS_8FilePathEPNS_4File4InfoE(ptr noundef nonnull readonly align 8 captures(none) dereferenceable(32) %0, ptr noundef %1) local_unnamed_addr #0 {
  %3 = alloca %struct.stat64, align 8
  call void @llvm.lifetime.start.p0(i64 144, ptr nonnull %3) #24
  %4 = load ptr, ptr %0, align 8, !tbaa !3
  %5 = call noundef i32 @stat64(ptr noundef readonly %4, ptr noundef nonnull %3) #24
  %.not = icmp eq i32 %5, 0
  br i1 %.not, label %6, label %7

6:                                                ; preds = %2
  call void @_ZN4base4File4Info8FromStatERK6stat64(ptr noundef nonnull align 8 dereferenceable(40) %1, ptr noundef nonnull align 8 dereferenceable(144) %3)
  br label %7

7:                                                ; preds = %2, %6
  call void @llvm.lifetime.end.p0(i64 144, ptr nonnull %3) #24
  ret i1 %.not
}